; Function Attrs: mustprogress uwtable
define dso_local void @_ZNSt3__14__fs10filesystem13__resize_fileERKNS1_4pathEmPNS_10error_codeE(ptr noundef nonnull align 8 dereferenceable(24) %0, i64 noundef %1, ptr noundef %2) local_unnamed_addr #0 {
  %4 = alloca %"struct.std::__1::__fs::filesystem::detail::ErrorHandler.1", align 8
  %5 = alloca %"class.std::__1::error_code", align 8
  call void @llvm.lifetime.start.p0(i64 32, ptr nonnull %4) #28
  store ptr @.str.21, ptr %4, align 8, !tbaa !32
  %6 = getelementptr inbounds nuw i8, ptr %4, i64 8
  store ptr %2, ptr %6, align 8, !tbaa !34
  %7 = getelementptr inbounds nuw i8, ptr %4, i64 16
  store ptr %0, ptr %7, align 8, !tbaa !35
  %8 = getelementptr inbounds nuw i8, ptr %4, i64 24
  store ptr null, ptr %8, align 8, !tbaa !36
  %.not.i = icmp eq ptr %2, null
  br i1 %.not.i, label %_ZNSt3__14__fs10filesystem6detail12ErrorHandlerIvEC2B8ne210000EPKcPNS_10error_codeEPKNS1_4pathESB_.exit, label %9

9:                                                ; preds = %3
  store i32 0, ptr %2, align 8, !tbaa !8
  %10 = tail call noundef nonnull align 8 dereferenceable(8) ptr @_ZNSt3__115system_categoryEv() #30
  %11 = getelementptr inbounds nuw i8, ptr %2, i64 8
  store ptr %10, ptr %11, align 8, !tbaa !13
  br label %_ZNSt3__14__fs10filesystem6detail12ErrorHandlerIvEC2B8ne210000EPKcPNS_10error_codeEPKNS1_4pathESB_.exit

_ZNSt3__14__fs10filesystem6detail12ErrorHandlerIvEC2B8ne210000EPKcPNS_10error_codeEPKNS1_4pathESB_.exit: ; preds = %3, %9
  %12 = load i8, ptr %0, align 8
  %13 = and i8 %12, 1
  %.not.i.i.i.i = icmp eq i8 %13, 0
  %14 = getelementptr inbounds nuw i8, ptr %0, i64 16
  %15 = load ptr, ptr %14, align 8
  %16 = getelementptr inbounds nuw i8, ptr %0, i64 1
  %17 = select i1 %.not.i.i.i.i, ptr %16, ptr %15
  %18 = tail call i32 @truncate(ptr noundef %17, i64 noundef %1) #28
  %19 = icmp eq i32 %18, -1
  br i1 %19, label %20, label %25

20:                                               ; preds = %_ZNSt3__14__fs10filesystem6detail12ErrorHandlerIvEC2B8ne210000EPKcPNS_10error_codeEPKNS1_4pathESB_.exit
  call void @llvm.lifetime.start.p0(i64 16, ptr nonnull %5) #28
  %21 = tail call ptr @__errno_location() #30
  %22 = load i32, ptr %21, align 4, !tbaa !26
  %23 = tail call noundef nonnull align 8 dereferenceable(8) ptr @_ZNSt3__116generic_categoryEv() #30
  store i32 %22, ptr %5, align 8
  %24 = getelementptr inbounds nuw i8, ptr %5, i64 8
  store ptr %23, ptr %24, align 8
  call void @_ZNKSt3__14__fs10filesystem6detail12ErrorHandlerIvE6reportB8ne210000ERKNS_10error_codeE(ptr noundef nonnull align 8 dereferenceable(32) %4, ptr noundef nonnull align 8 dereferenceable(16) %5)
  call void @llvm.lifetime.end.p0(i64 16, ptr nonnull %5) #28
  br label %25

25:                                               ; preds = %_ZNSt3__14__fs10filesystem6detail12ErrorHandlerIvEC2B8ne210000EPKcPNS_10error_codeEPKNS1_4pathESB_.exit, %20
  call void @llvm.lifetime.end.p0(i64 32, ptr nonnull %4) #28
  ret void
}